target datalayout = "e-m:e-p270:32:32-p271:32:32-p272:64:64-i64:64-i128:128-f80:128-n8:16:32:64-S128"
target triple = "x86_64-pc-linux-gnu"

%struct.AVChannelLayout = type { i32, i32, %union.anon, ptr }
%union.anon = type { i64 }
%struct.AVCodecContext = type { ptr, i32, i32, ptr, i32, i32, ptr, ptr, ptr, i64, i32, i32, ptr, i32, %struct.AVRational, %struct.AVRational, %struct.AVRational, i32, i32, i32, i32, i32, %struct.AVRational, i32, i32, i32, i32, i32, i32, i32, i32, i32, i32, i32, ptr, ptr, i32, float, float, float, float, float, float, float, float, float, i32, i32, i32, i32, i32, i32, i32, i32, i32, i32, i32, i32, ptr, ptr, ptr, i32, i32, i32, i32, i32, i32, i32, i32, i32, i32, %struct.AVChannelLayout, i32, i32, i32, i32, i32, i32, i32, i32, ptr, i32, i32, i32, float, float, i32, i32, i32, i32, i32, ptr, i64, i64, float, float, i32, i32, ptr, ptr, i32, i32, i32, i32, i32, ptr, ptr, ptr, ptr, i32, i32, [8 x i64], i32, i32, i32, i32, i32, i32, i32, ptr, ptr, i32, i32, i32, i32, i32, i32, i32, i32, i32, i32, ptr, ptr, i32, i32, ptr, ptr, ptr, ptr, i32, i32, i64, i32, i32, i64, ptr, i64, ptr, i32, ptr, i32 }
%struct.AVRational = type { i32, i32 }
%struct.AlacEncodeContext = type { ptr, ptr, i32, i32, i32, i32, i32, i32, i32, i32, [2 x [4096 x i32]], [2 x [4096 x i32]], i32, i32, %struct.PutBitContext, %struct.RiceContext, [2 x %struct.AlacLPCContext], %struct.LPCContext }
%struct.PutBitContext = type { i32, i32, ptr, ptr, ptr }
%struct.RiceContext = type { i32, i32, i32, i32 }
%struct.AlacLPCContext = type { i32, [31 x i32], i32 }
%struct.LPCContext = type { i32, i32, i32, ptr, ptr, ptr, ptr, [2 x %struct.LLSModel] }
%struct.LLSModel = type { [36 x [36 x double]], [32 x [32 x double]], [32 x double], i32, ptr, ptr, [8 x i8] }

@.str.7 = private unnamed_addr constant [32 x i8] c"encoding as 24 bits-per-sample\0A\00", align 1
@.str.8 = private unnamed_addr constant [42 x i8] c"invalid prediction orders: min=%d max=%d\0A\00", align 1

; Function Attrs: alwaysinline nounwind willreturn memory(none) uwtable
define internal i32 @av_bswap32(i32 noundef %0) #4 {
  %2 = alloca i32, align 4
  store i32 %0, ptr %2, align 4, !tbaa !57
  %3 = load i32, ptr %2, align 4, !tbaa !57
  %4 = shl i32 %3, 8
  %5 = and i32 %4, 65280
  %6 = load i32, ptr %2, align 4, !tbaa !57
  %7 = lshr i32 %6, 8
  %8 = and i32 %7, 255
  %9 = or i32 %5, %8
  %10 = shl i32 %9, 16
  %11 = load i32, ptr %2, align 4, !tbaa !57
  %12 = lshr i32 %11, 16
  %13 = shl i32 %12, 8
  %14 = and i32 %13, 65280
  %15 = load i32, ptr %2, align 4, !tbaa !57
  %16 = lshr i32 %15, 16
  %17 = lshr i32 %16, 8
  %18 = and i32 %17, 255
  %19 = or i32 %14, %18
  %20 = or i32 %10, %19
  ret i32 %20
}

; Function Attrs: alwaysinline nounwind uwtable
define internal i32 @get_max_frame_size(i32 noundef %0, i32 noundef %1, i32 noundef %2) #5 {
  %4 = alloca i32, align 4
  %5 = alloca i32, align 4
  %6 = alloca i32, align 4
  %7 = alloca i32, align 4
  store i32 %0, ptr %4, align 4, !tbaa !57
  store i32 %1, ptr %5, align 4, !tbaa !57
  store i32 %2, ptr %6, align 4, !tbaa !57
  call void @llvm.lifetime.start.p0(i64 4, ptr %7) #10
  %8 = load i32, ptr %4, align 4, !tbaa !57
  %9 = icmp slt i32 %8, 4096
  %10 = zext i1 %9 to i32
  %11 = mul nsw i32 32, %10
  %12 = add nsw i32 23, %11
  store i32 %12, ptr %7, align 4, !tbaa !57
  %13 = load i32, ptr %7, align 4, !tbaa !57
  %14 = load i32, ptr %6, align 4, !tbaa !57
  %15 = load i32, ptr %5, align 4, !tbaa !57
  %16 = mul nsw i32 %14, %15
  %17 = load i32, ptr %4, align 4, !tbaa !57
  %18 = mul nsw i32 %16, %17
  %19 = add nsw i32 %13, %18
  %20 = add nsw i32 %19, 3
  %21 = add nsw i32 %20, 8
  %22 = sub nsw i32 %21, 1
  %23 = and i32 %22, -8
  %24 = sdiv i32 %23, 8
  call void @llvm.lifetime.end.p0(i64 4, ptr %7) #10
  ret i32 %24
}

; Function Attrs: alwaysinline nounwind willreturn memory(none) uwtable
define internal i32 @av_clip_c(i32 noundef %0, i32 noundef %1, i32 noundef %2) #4 {
  %4 = alloca i32, align 4
  %5 = alloca i32, align 4
  %6 = alloca i32, align 4
  %7 = alloca i32, align 4
  store i32 %0, ptr %5, align 4, !tbaa !57
  store i32 %1, ptr %6, align 4, !tbaa !57
  store i32 %2, ptr %7, align 4, !tbaa !57
  %8 = load i32, ptr %5, align 4, !tbaa !57
  %9 = load i32, ptr %6, align 4, !tbaa !57
  %10 = icmp slt i32 %8, %9
  br i1 %10, label %11, label %13

11:                                               ; preds = %3
  %12 = load i32, ptr %6, align 4, !tbaa !57
  store i32 %12, ptr %4, align 4
  br label %21

13:                                               ; preds = %3
  %14 = load i32, ptr %5, align 4, !tbaa !57
  %15 = load i32, ptr %7, align 4, !tbaa !57
  %16 = icmp sgt i32 %14, %15
  br i1 %16, label %17, label %19

17:                                               ; preds = %13
  %18 = load i32, ptr %7, align 4, !tbaa !57
  store i32 %18, ptr %4, align 4
  br label %21

19:                                               ; preds = %13
  %20 = load i32, ptr %5, align 4, !tbaa !57
  store i32 %20, ptr %4, align 4
  br label %21

21:                                               ; preds = %19, %17, %11
  %22 = load i32, ptr %4, align 4
  ret i32 %22
}

; Function Attrs: cold nounwind optsize uwtable
define internal i32 @alac_encode_init(ptr noundef %0) #0 {
  %2 = alloca i32, align 4
  %3 = alloca ptr, align 8
  %4 = alloca ptr, align 8
  %5 = alloca i32, align 4
  %6 = alloca ptr, align 8
  %7 = alloca i32, align 4
  store ptr %0, ptr %3, align 8, !tbaa !4
  call void @llvm.lifetime.start.p0(i64 8, ptr %4) #10
  %8 = load ptr, ptr %3, align 8, !tbaa !4
  %9 = getelementptr inbounds nuw %struct.AVCodecContext, ptr %8, i32 0, i32 6
  %10 = load ptr, ptr %9, align 8, !tbaa !9
  store ptr %10, ptr %4, align 8, !tbaa !29
  call void @llvm.lifetime.start.p0(i64 4, ptr %5) #10
  call void @llvm.lifetime.start.p0(i64 8, ptr %6) #10
  %11 = load ptr, ptr %4, align 8, !tbaa !29
  %12 = getelementptr inbounds nuw %struct.AlacEncodeContext, ptr %11, i32 0, i32 2
  store i32 4096, ptr %12, align 16, !tbaa !31
  %13 = load ptr, ptr %3, align 8, !tbaa !4
  %14 = getelementptr inbounds nuw %struct.AVCodecContext, ptr %13, i32 0, i32 72
  store i32 4096, ptr %14, align 8, !tbaa !37
  %15 = load ptr, ptr %3, align 8, !tbaa !4
  %16 = getelementptr inbounds nuw %struct.AVCodecContext, ptr %15, i32 0, i32 70
  %17 = load i32, ptr %16, align 4, !tbaa !38
  %18 = icmp eq i32 %17, 7
  br i1 %18, label %19, label %29

19:                                               ; preds = %1
  %20 = load ptr, ptr %3, align 8, !tbaa !4
  %21 = getelementptr inbounds nuw %struct.AVCodecContext, ptr %20, i32 0, i32 115
  %22 = load i32, ptr %21, align 4, !tbaa !39
  %23 = icmp ne i32 %22, 24
  br i1 %23, label %24, label %26

24:                                               ; preds = %19
  %25 = load ptr, ptr %3, align 8, !tbaa !4
  call void (ptr, i32, ptr, ...) @av_log(ptr noundef %25, i32 noundef 24, ptr noundef @.str.7)
  br label %26

26:                                               ; preds = %24, %19
  %27 = load ptr, ptr %3, align 8, !tbaa !4
  %28 = getelementptr inbounds nuw %struct.AVCodecContext, ptr %27, i32 0, i32 115
  store i32 24, ptr %28, align 4, !tbaa !39
  br label %34

29:                                               ; preds = %1
  %30 = load ptr, ptr %3, align 8, !tbaa !4
  %31 = getelementptr inbounds nuw %struct.AVCodecContext, ptr %30, i32 0, i32 115
  store i32 16, ptr %31, align 4, !tbaa !39
  %32 = load ptr, ptr %4, align 8, !tbaa !29
  %33 = getelementptr inbounds nuw %struct.AlacEncodeContext, ptr %32, i32 0, i32 9
  store i32 0, ptr %33, align 4, !tbaa !40
  br label %34

34:                                               ; preds = %29, %26
  %35 = load ptr, ptr %3, align 8, !tbaa !4
  %36 = getelementptr inbounds nuw %struct.AVCodecContext, ptr %35, i32 0, i32 83
  %37 = load i32, ptr %36, align 8, !tbaa !41
  %38 = icmp eq i32 %37, -1
  br i1 %38, label %39, label %42

39:                                               ; preds = %34
  %40 = load ptr, ptr %4, align 8, !tbaa !29
  %41 = getelementptr inbounds nuw %struct.AlacEncodeContext, ptr %40, i32 0, i32 4
  store i32 2, ptr %41, align 8, !tbaa !42
  br label %49

42:                                               ; preds = %34
  %43 = load ptr, ptr %3, align 8, !tbaa !4
  %44 = getelementptr inbounds nuw %struct.AVCodecContext, ptr %43, i32 0, i32 83
  %45 = load i32, ptr %44, align 8, !tbaa !41
  %46 = call i32 @av_clip_c(i32 noundef %45, i32 noundef 0, i32 noundef 2) #11
  %47 = load ptr, ptr %4, align 8, !tbaa !29
  %48 = getelementptr inbounds nuw %struct.AlacEncodeContext, ptr %47, i32 0, i32 4
  store i32 %46, ptr %48, align 8, !tbaa !42
  br label %49

49:                                               ; preds = %42, %39
  %50 = load ptr, ptr %4, align 8, !tbaa !29
  %51 = getelementptr inbounds nuw %struct.AlacEncodeContext, ptr %50, i32 0, i32 15
  %52 = getelementptr inbounds nuw %struct.RiceContext, ptr %51, i32 0, i32 0
  store i32 40, ptr %52, align 8, !tbaa !43
  %53 = load ptr, ptr %4, align 8, !tbaa !29
  %54 = getelementptr inbounds nuw %struct.AlacEncodeContext, ptr %53, i32 0, i32 15
  %55 = getelementptr inbounds nuw %struct.RiceContext, ptr %54, i32 0, i32 1
  store i32 10, ptr %55, align 4, !tbaa !44
  %56 = load ptr, ptr %4, align 8, !tbaa !29
  %57 = getelementptr inbounds nuw %struct.AlacEncodeContext, ptr %56, i32 0, i32 15
  %58 = getelementptr inbounds nuw %struct.RiceContext, ptr %57, i32 0, i32 2
  store i32 14, ptr %58, align 8, !tbaa !45
  %59 = load ptr, ptr %4, align 8, !tbaa !29
  %60 = getelementptr inbounds nuw %struct.AlacEncodeContext, ptr %59, i32 0, i32 15
  %61 = getelementptr inbounds nuw %struct.RiceContext, ptr %60, i32 0, i32 3
  store i32 4, ptr %61, align 4, !tbaa !46
  %62 = load ptr, ptr %3, align 8, !tbaa !4
  %63 = getelementptr inbounds nuw %struct.AVCodecContext, ptr %62, i32 0, i32 72
  %64 = load i32, ptr %63, align 8, !tbaa !37
  %65 = load ptr, ptr %3, align 8, !tbaa !4
  %66 = getelementptr inbounds nuw %struct.AVCodecContext, ptr %65, i32 0, i32 71
  %67 = getelementptr inbounds nuw %struct.AVChannelLayout, ptr %66, i32 0, i32 1
  %68 = load i32, ptr %67, align 4, !tbaa !47
  %69 = load ptr, ptr %3, align 8, !tbaa !4
  %70 = getelementptr inbounds nuw %struct.AVCodecContext, ptr %69, i32 0, i32 115
  %71 = load i32, ptr %70, align 4, !tbaa !39
  %72 = call i32 @get_max_frame_size(i32 noundef %64, i32 noundef %68, i32 noundef %71)
  %73 = load ptr, ptr %4, align 8, !tbaa !29
  %74 = getelementptr inbounds nuw %struct.AlacEncodeContext, ptr %73, i32 0, i32 7
  store i32 %72, ptr %74, align 4, !tbaa !48
  %75 = call noalias ptr @av_mallocz(i64 noundef 100)
  %76 = load ptr, ptr %3, align 8, !tbaa !4
  %77 = getelementptr inbounds nuw %struct.AVCodecContext, ptr %76, i32 0, i32 12
  store ptr %75, ptr %77, align 8, !tbaa !49
  %78 = load ptr, ptr %3, align 8, !tbaa !4
  %79 = getelementptr inbounds nuw %struct.AVCodecContext, ptr %78, i32 0, i32 12
  %80 = load ptr, ptr %79, align 8, !tbaa !49
  %81 = icmp ne ptr %80, null
  br i1 %81, label %83, label %82

82:                                               ; preds = %49
  store i32 -12, ptr %2, align 4
  store i32 1, ptr %7, align 4
  br label %219

83:                                               ; preds = %49
  %84 = load ptr, ptr %3, align 8, !tbaa !4
  %85 = getelementptr inbounds nuw %struct.AVCodecContext, ptr %84, i32 0, i32 13
  store i32 36, ptr %85, align 8, !tbaa !50
  %86 = load ptr, ptr %3, align 8, !tbaa !4
  %87 = getelementptr inbounds nuw %struct.AVCodecContext, ptr %86, i32 0, i32 12
  %88 = load ptr, ptr %87, align 8, !tbaa !49
  store ptr %88, ptr %6, align 8, !tbaa !51
  %89 = call i32 @av_bswap32(i32 noundef 36) #11
  %90 = load ptr, ptr %6, align 8, !tbaa !51
  store i32 %89, ptr %90, align 1, !tbaa !52
  %91 = call i32 @av_bswap32(i32 noundef 1634492771) #11
  %92 = load ptr, ptr %6, align 8, !tbaa !51
  %93 = getelementptr inbounds i8, ptr %92, i64 4
  store i32 %91, ptr %93, align 1, !tbaa !52
  %94 = load ptr, ptr %3, align 8, !tbaa !4
  %95 = getelementptr inbounds nuw %struct.AVCodecContext, ptr %94, i32 0, i32 72
  %96 = load i32, ptr %95, align 8, !tbaa !37
  %97 = call i32 @av_bswap32(i32 noundef %96) #11
  %98 = load ptr, ptr %6, align 8, !tbaa !51
  %99 = getelementptr inbounds i8, ptr %98, i64 12
  store i32 %97, ptr %99, align 1, !tbaa !52
  br label %100

100:                                              ; preds = %83
  %101 = load ptr, ptr %3, align 8, !tbaa !4
  %102 = getelementptr inbounds nuw %struct.AVCodecContext, ptr %101, i32 0, i32 115
  %103 = load i32, ptr %102, align 4, !tbaa !39
  %104 = trunc i32 %103 to i8
  %105 = load ptr, ptr %6, align 8, !tbaa !51
  %106 = getelementptr inbounds i8, ptr %105, i64 17
  %107 = getelementptr inbounds i8, ptr %106, i64 0
  store i8 %104, ptr %107, align 1, !tbaa !52
  br label %108

108:                                              ; preds = %100
  br label %109

109:                                              ; preds = %108
  br label %110

110:                                              ; preds = %109
  %111 = load ptr, ptr %3, align 8, !tbaa !4
  %112 = getelementptr inbounds nuw %struct.AVCodecContext, ptr %111, i32 0, i32 71
  %113 = getelementptr inbounds nuw %struct.AVChannelLayout, ptr %112, i32 0, i32 1
  %114 = load i32, ptr %113, align 4, !tbaa !47
  %115 = trunc i32 %114 to i8
  %116 = load ptr, ptr %6, align 8, !tbaa !51
  %117 = getelementptr inbounds i8, ptr %116, i64 21
  %118 = getelementptr inbounds i8, ptr %117, i64 0
  store i8 %115, ptr %118, align 1, !tbaa !52
  br label %119

119:                                              ; preds = %110
  br label %120

120:                                              ; preds = %119
  %121 = load ptr, ptr %4, align 8, !tbaa !29
  %122 = getelementptr inbounds nuw %struct.AlacEncodeContext, ptr %121, i32 0, i32 7
  %123 = load i32, ptr %122, align 4, !tbaa !48
  %124 = call i32 @av_bswap32(i32 noundef %123) #11
  %125 = load ptr, ptr %6, align 8, !tbaa !51
  %126 = getelementptr inbounds i8, ptr %125, i64 24
  store i32 %124, ptr %126, align 1, !tbaa !52
  %127 = load ptr, ptr %3, align 8, !tbaa !4
  %128 = getelementptr inbounds nuw %struct.AVCodecContext, ptr %127, i32 0, i32 69
  %129 = load i32, ptr %128, align 8, !tbaa !53
  %130 = load ptr, ptr %3, align 8, !tbaa !4
  %131 = getelementptr inbounds nuw %struct.AVCodecContext, ptr %130, i32 0, i32 71
  %132 = getelementptr inbounds nuw %struct.AVChannelLayout, ptr %131, i32 0, i32 1
  %133 = load i32, ptr %132, align 4, !tbaa !47
  %134 = mul nsw i32 %129, %133
  %135 = load ptr, ptr %3, align 8, !tbaa !4
  %136 = getelementptr inbounds nuw %struct.AVCodecContext, ptr %135, i32 0, i32 115
  %137 = load i32, ptr %136, align 4, !tbaa !39
  %138 = mul nsw i32 %134, %137
  %139 = call i32 @av_bswap32(i32 noundef %138) #11
  %140 = load ptr, ptr %6, align 8, !tbaa !51
  %141 = getelementptr inbounds i8, ptr %140, i64 28
  store i32 %139, ptr %141, align 1, !tbaa !52
  %142 = load ptr, ptr %3, align 8, !tbaa !4
  %143 = getelementptr inbounds nuw %struct.AVCodecContext, ptr %142, i32 0, i32 69
  %144 = load i32, ptr %143, align 8, !tbaa !53
  %145 = call i32 @av_bswap32(i32 noundef %144) #11
  %146 = load ptr, ptr %6, align 8, !tbaa !51
  %147 = getelementptr inbounds i8, ptr %146, i64 32
  store i32 %145, ptr %147, align 1, !tbaa !52
  %148 = load ptr, ptr %4, align 8, !tbaa !29
  %149 = getelementptr inbounds nuw %struct.AlacEncodeContext, ptr %148, i32 0, i32 4
  %150 = load i32, ptr %149, align 8, !tbaa !42
  %151 = icmp sgt i32 %150, 0
  br i1 %151, label %152, label %186

152:                                              ; preds = %120
  br label %153

153:                                              ; preds = %152
  %154 = load ptr, ptr %4, align 8, !tbaa !29
  %155 = getelementptr inbounds nuw %struct.AlacEncodeContext, ptr %154, i32 0, i32 15
  %156 = getelementptr inbounds nuw %struct.RiceContext, ptr %155, i32 0, i32 0
  %157 = load i32, ptr %156, align 8, !tbaa !43
  %158 = trunc i32 %157 to i8
  %159 = load ptr, ptr %6, align 8, !tbaa !51
  %160 = getelementptr inbounds i8, ptr %159, i64 18
  %161 = getelementptr inbounds i8, ptr %160, i64 0
  store i8 %158, ptr %161, align 1, !tbaa !52
  br label %162

162:                                              ; preds = %153
  br label %163

163:                                              ; preds = %162
  br label %164

164:                                              ; preds = %163
  %165 = load ptr, ptr %4, align 8, !tbaa !29
  %166 = getelementptr inbounds nuw %struct.AlacEncodeContext, ptr %165, i32 0, i32 15
  %167 = getelementptr inbounds nuw %struct.RiceContext, ptr %166, i32 0, i32 1
  %168 = load i32, ptr %167, align 4, !tbaa !44
  %169 = trunc i32 %168 to i8
  %170 = load ptr, ptr %6, align 8, !tbaa !51
  %171 = getelementptr inbounds i8, ptr %170, i64 19
  %172 = getelementptr inbounds i8, ptr %171, i64 0
  store i8 %169, ptr %172, align 1, !tbaa !52
  br label %173

173:                                              ; preds = %164
  br label %174

174:                                              ; preds = %173
  br label %175

175:                                              ; preds = %174
  %176 = load ptr, ptr %4, align 8, !tbaa !29
  %177 = getelementptr inbounds nuw %struct.AlacEncodeContext, ptr %176, i32 0, i32 15
  %178 = getelementptr inbounds nuw %struct.RiceContext, ptr %177, i32 0, i32 2
  %179 = load i32, ptr %178, align 8, !tbaa !45
  %180 = trunc i32 %179 to i8
  %181 = load ptr, ptr %6, align 8, !tbaa !51
  %182 = getelementptr inbounds i8, ptr %181, i64 20
  %183 = getelementptr inbounds i8, ptr %182, i64 0
  store i8 %180, ptr %183, align 1, !tbaa !52
  br label %184

184:                                              ; preds = %175
  br label %185

185:                                              ; preds = %184
  br label %186

186:                                              ; preds = %185, %120
  %187 = load ptr, ptr %4, align 8, !tbaa !29
  %188 = getelementptr inbounds nuw %struct.AlacEncodeContext, ptr %187, i32 0, i32 6
  %189 = load i32, ptr %188, align 16, !tbaa !54
  %190 = load ptr, ptr %4, align 8, !tbaa !29
  %191 = getelementptr inbounds nuw %struct.AlacEncodeContext, ptr %190, i32 0, i32 5
  %192 = load i32, ptr %191, align 4, !tbaa !55
  %193 = icmp slt i32 %189, %192
  br i1 %193, label %194, label %202

194:                                              ; preds = %186
  %195 = load ptr, ptr %3, align 8, !tbaa !4
  %196 = load ptr, ptr %4, align 8, !tbaa !29
  %197 = getelementptr inbounds nuw %struct.AlacEncodeContext, ptr %196, i32 0, i32 5
  %198 = load i32, ptr %197, align 4, !tbaa !55
  %199 = load ptr, ptr %4, align 8, !tbaa !29
  %200 = getelementptr inbounds nuw %struct.AlacEncodeContext, ptr %199, i32 0, i32 6
  %201 = load i32, ptr %200, align 16, !tbaa !54
  call void (ptr, i32, ptr, ...) @av_log(ptr noundef %195, i32 noundef 16, ptr noundef @.str.8, i32 noundef %198, i32 noundef %201)
  store i32 -22, ptr %2, align 4
  store i32 1, ptr %7, align 4
  br label %219

202:                                              ; preds = %186
  %203 = load ptr, ptr %3, align 8, !tbaa !4
  %204 = load ptr, ptr %4, align 8, !tbaa !29
  %205 = getelementptr inbounds nuw %struct.AlacEncodeContext, ptr %204, i32 0, i32 1
  store ptr %203, ptr %205, align 8, !tbaa !56
  %206 = load ptr, ptr %4, align 8, !tbaa !29
  %207 = getelementptr inbounds nuw %struct.AlacEncodeContext, ptr %206, i32 0, i32 17
  %208 = load ptr, ptr %3, align 8, !tbaa !4
  %209 = getelementptr inbounds nuw %struct.AVCodecContext, ptr %208, i32 0, i32 72
  %210 = load i32, ptr %209, align 8, !tbaa !37
  %211 = load ptr, ptr %4, align 8, !tbaa !29
  %212 = getelementptr inbounds nuw %struct.AlacEncodeContext, ptr %211, i32 0, i32 6
  %213 = load i32, ptr %212, align 16, !tbaa !54
  %214 = call i32 @ff_lpc_init(ptr noundef %207, i32 noundef %210, i32 noundef %213, i32 noundef 2)
  store i32 %214, ptr %5, align 4, !tbaa !57
  %215 = icmp slt i32 %214, 0
  br i1 %215, label %216, label %218

216:                                              ; preds = %202
  %217 = load i32, ptr %5, align 4, !tbaa !57
  store i32 %217, ptr %2, align 4
  store i32 1, ptr %7, align 4
  br label %219

218:                                              ; preds = %202
  store i32 0, ptr %2, align 4
  store i32 1, ptr %7, align 4
  br label %219

219:                                              ; preds = %218, %216, %194, %82
  call void @llvm.lifetime.end.p0(i64 8, ptr %6) #10
  call void @llvm.lifetime.end.p0(i64 4, ptr %5) #10
  call void @llvm.lifetime.end.p0(i64 8, ptr %4) #10
  %220 = load i32, ptr %2, align 4
  ret i32 %220
}