; Function Attrs: cold nounwind optsize uwtable
define internal range(i32 -2147483648, 1) i32 @alac_encode_init(ptr noundef initializes((376, 380)) %0) #0 {
  %2 = getelementptr inbounds nuw i8, ptr %0, i64 32
  %3 = load ptr, ptr %2, align 8, !tbaa !4
  %4 = getelementptr inbounds nuw i8, ptr %3, i64 16
  store i32 4096, ptr %4, align 16, !tbaa !27
  %5 = getelementptr inbounds nuw i8, ptr %0, i64 376
  store i32 4096, ptr %5, align 8, !tbaa !34
  %6 = getelementptr inbounds nuw i8, ptr %0, i64 348
  %7 = load i32, ptr %6, align 4, !tbaa !35
  %8 = icmp eq i32 %7, 7
  %9 = getelementptr inbounds nuw i8, ptr %0, i64 652
  br i1 %8, label %10, label %14

10:                                               ; preds = %1
  %11 = load i32, ptr %9, align 4, !tbaa !36
  %.not = icmp eq i32 %11, 24
  br i1 %.not, label %13, label %12

12:                                               ; preds = %10
  tail call void (ptr, i32, ptr, ...) @av_log(ptr noundef nonnull %0, i32 noundef 24, ptr noundef nonnull @.str.7) #7
  br label %13

13:                                               ; preds = %12, %10
  store i32 24, ptr %9, align 4, !tbaa !36
  br label %16

14:                                               ; preds = %1
  store i32 16, ptr %9, align 4, !tbaa !36
  %15 = getelementptr inbounds nuw i8, ptr %3, i64 44
  store i32 0, ptr %15, align 4, !tbaa !37
  br label %16

16:                                               ; preds = %14, %13
  %17 = phi i32 [ 16, %14 ], [ 24, %13 ]
  %18 = getelementptr inbounds nuw i8, ptr %0, i64 424
  %19 = load i32, ptr %18, align 8, !tbaa !38
  %20 = icmp eq i32 %19, -1
  br i1 %20, label %24, label %21

21:                                               ; preds = %16
  %22 = tail call i32 @llvm.smax.i32(i32 %19, i32 0)
  %23 = tail call i32 @llvm.umin.i32(i32 %22, i32 2)
  br label %24

24:                                               ; preds = %16, %21
  %.0.i.sink = phi i32 [ %23, %21 ], [ 2, %16 ]
  %25 = getelementptr inbounds nuw i8, ptr %3, i64 24
  store i32 %.0.i.sink, ptr %25, align 8, !tbaa !39
  %26 = getelementptr inbounds nuw i8, ptr %3, i64 65624
  store i32 40, ptr %26, align 8, !tbaa !40
  %27 = getelementptr inbounds nuw i8, ptr %3, i64 65628
  store i32 10, ptr %27, align 4, !tbaa !41
  %28 = getelementptr inbounds nuw i8, ptr %3, i64 65632
  store i32 14, ptr %28, align 8, !tbaa !42
  %29 = getelementptr inbounds nuw i8, ptr %3, i64 65636
  store i32 4, ptr %29, align 4, !tbaa !43
  %30 = load i32, ptr %5, align 8, !tbaa !34
  %31 = getelementptr inbounds nuw i8, ptr %0, i64 356
  %32 = load i32, ptr %31, align 4, !tbaa !44
  %33 = icmp slt i32 %30, 4096
  %34 = mul i32 %32, %30
  %35 = mul i32 %34, %17
  %36 = select i1 %33, i32 64, i32 32
  %37 = add i32 %36, %35
  %38 = ashr exact i32 %37, 3
  %39 = getelementptr inbounds nuw i8, ptr %3, i64 36
  store i32 %38, ptr %39, align 4, !tbaa !45
  %40 = tail call noalias ptr @av_mallocz(i64 noundef 100) #7
  %41 = getelementptr inbounds nuw i8, ptr %0, i64 72
  store ptr %40, ptr %41, align 8, !tbaa !46
  %.not63 = icmp eq ptr %40, null
  br i1 %.not63, label %89, label %42

42:                                               ; preds = %24
  %43 = getelementptr inbounds nuw i8, ptr %0, i64 652
  %44 = getelementptr inbounds nuw i8, ptr %0, i64 80
  store i32 36, ptr %44, align 8, !tbaa !47
  store i32 603979776, ptr %40, align 1, !tbaa !48
  %45 = getelementptr inbounds nuw i8, ptr %40, i64 4
  store i32 1667329121, ptr %45, align 1, !tbaa !48
  %46 = load i32, ptr %5, align 8, !tbaa !34
  %47 = tail call i32 @llvm.bswap.i32(i32 %46)
  %48 = getelementptr inbounds nuw i8, ptr %40, i64 12
  store i32 %47, ptr %48, align 1, !tbaa !48
  %49 = load i32, ptr %43, align 4, !tbaa !36
  %50 = trunc i32 %49 to i8
  %51 = getelementptr inbounds nuw i8, ptr %40, i64 17
  store i8 %50, ptr %51, align 1, !tbaa !48
  %52 = load i32, ptr %31, align 4, !tbaa !44
  %53 = trunc i32 %52 to i8
  %54 = getelementptr inbounds nuw i8, ptr %40, i64 21
  store i8 %53, ptr %54, align 1, !tbaa !48
  %55 = load i32, ptr %39, align 4, !tbaa !45
  %56 = tail call i32 @llvm.bswap.i32(i32 %55)
  %57 = getelementptr inbounds nuw i8, ptr %40, i64 24
  store i32 %56, ptr %57, align 1, !tbaa !48
  %58 = getelementptr inbounds nuw i8, ptr %0, i64 344
  %59 = load i32, ptr %58, align 8, !tbaa !49
  %60 = mul i32 %52, %49
  %61 = mul i32 %60, %59
  %62 = tail call i32 @llvm.bswap.i32(i32 %61)
  %63 = getelementptr inbounds nuw i8, ptr %40, i64 28
  store i32 %62, ptr %63, align 1, !tbaa !48
  %64 = tail call i32 @llvm.bswap.i32(i32 %59)
  %65 = getelementptr inbounds nuw i8, ptr %40, i64 32
  store i32 %64, ptr %65, align 1, !tbaa !48
  %66 = load i32, ptr %25, align 8, !tbaa !39
  %67 = icmp sgt i32 %66, 0
  br i1 %67, label %68, label %78

68:                                               ; preds = %42
  %69 = load i32, ptr %26, align 8, !tbaa !40
  %70 = trunc i32 %69 to i8
  %71 = getelementptr inbounds nuw i8, ptr %40, i64 18
  store i8 %70, ptr %71, align 1, !tbaa !48
  %72 = load i32, ptr %27, align 4, !tbaa !41
  %73 = trunc i32 %72 to i8
  %74 = getelementptr inbounds nuw i8, ptr %40, i64 19
  store i8 %73, ptr %74, align 1, !tbaa !48
  %75 = load i32, ptr %28, align 8, !tbaa !42
  %76 = trunc i32 %75 to i8
  %77 = getelementptr inbounds nuw i8, ptr %40, i64 20
  store i8 %76, ptr %77, align 1, !tbaa !48
  br label %78

78:                                               ; preds = %68, %42
  %79 = getelementptr inbounds nuw i8, ptr %3, i64 32
  %80 = load i32, ptr %79, align 16, !tbaa !50
  %81 = getelementptr inbounds nuw i8, ptr %3, i64 28
  %82 = load i32, ptr %81, align 4, !tbaa !51
  %83 = icmp slt i32 %80, %82
  br i1 %83, label %84, label %85

84:                                               ; preds = %78
  tail call void (ptr, i32, ptr, ...) @av_log(ptr noundef nonnull %0, i32 noundef 16, ptr noundef nonnull @.str.8, i32 noundef %82, i32 noundef %80) #7
  br label %89

85:                                               ; preds = %78
  %86 = getelementptr inbounds nuw i8, ptr %3, i64 8
  store ptr %0, ptr %86, align 8, !tbaa !52
  %87 = getelementptr inbounds nuw i8, ptr %3, i64 65904
  %88 = tail call i32 @ff_lpc_init(ptr noundef nonnull %87, i32 noundef %46, i32 noundef %80, i32 noundef 2) #7
  %. = tail call i32 @llvm.smin.i32(i32 %88, i32 0)
  br label %89

89:                                               ; preds = %85, %24, %84
  %.0 = phi i32 [ -22, %84 ], [ -12, %24 ], [ %., %85 ]
  ret i32 %.0
}